; Function Attrs: nofree norecurse nosync nounwind memory(readwrite, inaccessiblemem: none) uwtable
define internal noundef i32 @filter_inverse_fltp_noclip(ptr readnone captures(none) %0, ptr noundef readonly captures(none) %1, i32 noundef %2, i32 noundef %3) #6 {
  %5 = load ptr, ptr %1, align 8, !tbaa !44
  %6 = getelementptr inbounds nuw i8, ptr %1, i64 8
  %7 = load ptr, ptr %6, align 8, !tbaa !47
  %8 = getelementptr inbounds nuw i8, ptr %1, i64 16
  %9 = load ptr, ptr %8, align 8, !tbaa !46
  %10 = getelementptr inbounds nuw i8, ptr %1, i64 24
  %11 = load i32, ptr %10, align 8, !tbaa !48
  %12 = getelementptr inbounds nuw i8, ptr %1, i64 28
  %13 = load i32, ptr %12, align 4, !tbaa !50
  %14 = getelementptr inbounds nuw i8, ptr %1, i64 32
  %15 = load float, ptr %14, align 8, !tbaa !53
  %16 = fsub nsz float 1.000000e+00, %15
  %17 = fdiv nsz float 1.000000e+00, %16
  %18 = mul nsw i32 %13, %2
  %19 = sdiv i32 %18, %3
  %20 = add nsw i32 %2, 1
  %21 = mul nsw i32 %13, %20
  %22 = sdiv i32 %21, %3
  %23 = icmp slt i32 %19, %22
  %24 = icmp sgt i32 %11, 0
  %or.cond = select i1 %23, i1 %24, i1 false
  br i1 %or.cond, label %.lr.ph.us.preheader, label %._crit_edge42

.lr.ph.us.preheader:                              ; preds = %4
  %25 = sext i32 %19 to i64
  %wide.trip.count48 = sext i32 %22 to i64
  %wide.trip.count = zext nneg i32 %11 to i64
  br label %.lr.ph.us

.lr.ph.us:                                        ; preds = %.lr.ph.us.preheader, %._crit_edge.us
  %indvars.iv45 = phi i64 [ %25, %.lr.ph.us.preheader ], [ %indvars.iv.next46, %._crit_edge.us ]
  %26 = getelementptr inbounds ptr, ptr %9, i64 %indvars.iv45
  %27 = load ptr, ptr %26, align 8, !tbaa !55
  %28 = getelementptr inbounds ptr, ptr %5, i64 %indvars.iv45
  %29 = load ptr, ptr %28, align 8, !tbaa !55
  %30 = getelementptr inbounds ptr, ptr %7, i64 %indvars.iv45
  %31 = load ptr, ptr %30, align 8, !tbaa !55
  %.pre = load float, ptr %31, align 4, !tbaa !58
  br label %32

32:                                               ; preds = %.lr.ph.us, %32
  %33 = phi float [ %.pre, %.lr.ph.us ], [ %38, %32 ]
  %indvars.iv = phi i64 [ 0, %.lr.ph.us ], [ %indvars.iv.next, %32 ]
  %34 = getelementptr inbounds nuw float, ptr %27, i64 %indvars.iv
  %35 = load float, ptr %34, align 4, !tbaa !58
  %36 = fneg nsz float %33
  %37 = tail call nsz float @llvm.fmuladd.f32(float %36, float %15, float %35)
  %38 = fmul nsz float %17, %37
  %39 = getelementptr inbounds nuw float, ptr %29, i64 %indvars.iv
  store float %38, ptr %39, align 4, !tbaa !58
  store float %38, ptr %31, align 4, !tbaa !58
  %indvars.iv.next = add nuw nsw i64 %indvars.iv, 1
  %exitcond.not = icmp eq i64 %indvars.iv.next, %wide.trip.count
  br i1 %exitcond.not, label %._crit_edge.us, label %32, !llvm.loop !68

._crit_edge.us:                                   ; preds = %32
  %indvars.iv.next46 = add nsw i64 %indvars.iv45, 1
  %exitcond49.not = icmp eq i64 %indvars.iv.next46, %wide.trip.count48
  br i1 %exitcond49.not, label %._crit_edge42, label %.lr.ph.us, !llvm.loop !69

._crit_edge42:                                    ; preds = %._crit_edge.us, %4
  ret i32 0
}